; ModuleID = '47/1409.c'
source_filename = "47/1409.c"
target datalayout = "e-m:e-p270:32:32-p271:32:32-p272:64:64-i64:64-f80:128-n8:16:32:64-S128"
target triple = "x86_64-pc-linux-gnu"

@.str = private unnamed_addr constant [3 x i8] c"%d\00", align 1
@.str.1 = private unnamed_addr constant [4 x i8] c"%d \00", align 1

; Function Attrs: noinline nounwind uwtable
define dso_local i32 @main() #0 {
  %1 = alloca i32, align 4
  %2 = alloca i32, align 4
  %3 = alloca i8*, align 8
  %4 = alloca i64, align 8
  %5 = alloca i32, align 4
  %6 = alloca i32, align 4
  store i32 0, i32* %1, align 4
  %7 = call i32 (i8*, ...) @__isoc99_scanf(i8* getelementptr inbounds ([3 x i8], [3 x i8]* @.str, i64 0, i64 0), i32* %2)
  %8 = load i32, i32* %2, align 4
  %9 = zext i32 %8 to i64
  %10 = call i8* @llvm.stacksave()
  store i8* %10, i8** %3, align 8
  %11 = alloca i32, i64 %9, align 16
  store i64 %9, i64* %4, align 8
  store i32 0, i32* %5, align 4
  br label %12

12:                                               ; preds = %21, %0
  %13 = load i32, i32* %5, align 4
  %14 = load i32, i32* %2, align 4
  %15 = icmp slt i32 %13, %14
  br i1 %15, label %16, label %24

16:                                               ; preds = %12
  %17 = load i32, i32* %5, align 4
  %18 = sext i32 %17 to i64
  %19 = getelementptr inbounds i32, i32* %11, i64 %18
  %20 = call i32 (i8*, ...) @__isoc99_scanf(i8* getelementptr inbounds ([3 x i8], [3 x i8]* @.str, i64 0, i64 0), i32* %19)
  br label %21

21:                                               ; preds = %16
  %22 = load i32, i32* %5, align 4
  %23 = add nsw i32 %22, 1
  store i32 %23, i32* %5, align 4
  br label %12

24:                                               ; preds = %12
  %25 = load i32, i32* %2, align 4
  %26 = sub nsw i32 %25, 1
  store i32 %26, i32* %6, align 4
  br label %27

27:                                               ; preds = %46, %24
  %28 = load i32, i32* %6, align 4
  %29 = icmp sge i32 %28, 0
  br i1 %29, label %30, label %49

30:                                               ; preds = %27
  %31 = load i32, i32* %6, align 4
  %32 = icmp eq i32 %31, 0
  br i1 %32, label %33, label %39

33:                                               ; preds = %30
  %34 = load i32, i32* %6, align 4
  %35 = sext i32 %34 to i64
  %36 = getelementptr inbounds i32, i32* %11, i64 %35
  %37 = load i32, i32* %36, align 4
  %38 = call i32 (i8*, ...) @printf(i8* getelementptr inbounds ([3 x i8], [3 x i8]* @.str, i64 0, i64 0), i32 %37)
  br label %45

39:                                               ; preds = %30
  %40 = load i32, i32* %6, align 4
  %41 = sext i32 %40 to i64
  %42 = getelementptr inbounds i32, i32* %11, i64 %41
  %43 = load i32, i32* %42, align 4
  %44 = call i32 (i8*, ...) @printf(i8* getelementptr inbounds ([4 x i8], [4 x i8]* @.str.1, i64 0, i64 0), i32 %43)
  br label %45

45:                                               ; preds = %39, %33
  br label %46

46:                                               ; preds = %45
  %47 = load i32, i32* %6, align 4
  %48 = add nsw i32 %47, -1
  store i32 %48, i32* %6, align 4
  br label %27

49:                                               ; preds = %27
  store i32 0, i32* %1, align 4
  %50 = load i8*, i8** %3, align 8
  call void @llvm.stackrestore(i8* %50)
  %51 = load i32, i32* %1, align 4
  ret i32 %51
}

declare dso_local i32 @__isoc99_scanf(i8*, ...) #1

; Function Attrs: nounwind
declare i8* @llvm.stacksave() #2

declare dso_local i32 @printf(i8*, ...) #1

; Function Attrs: nounwind
declare void @llvm.stackrestore(i8*) #2


!llvm.module.flags = !{!0}
!llvm.ident = !{!1}

!0 = !{i32 1, !"wchar_size", i32 4}
!1 = !{!"clang version 10.0.0-4ubuntu1 "}
